target datalayout = "e-m:e-p270:32:32-p271:32:32-p272:64:64-i64:64-i128:128-f80:128-n8:16:32:64-S128"
target triple = "x86_64-pc-linux-gnu"

%struct.CharRange = type { i32, i32, ptr, ptr, ptr }

; Function Attrs: nounwind uwtable
define internal i32 @max_int(i32 noundef %0, i32 noundef %1) #0 {
  %3 = alloca i32, align 4
  %4 = alloca i32, align 4
  %5 = alloca i32, align 4
  store i32 %0, ptr %4, align 4
  store i32 %1, ptr %5, align 4
  %6 = load i32, ptr %4, align 4
  %7 = load i32, ptr %5, align 4
  %8 = icmp sgt i32 %6, %7
  br i1 %8, label %9, label %11

9:                                                ; preds = %2
  %10 = load i32, ptr %4, align 4
  store i32 %10, ptr %3, align 4
  br label %13

11:                                               ; preds = %2
  %12 = load i32, ptr %5, align 4
  store i32 %12, ptr %3, align 4
  br label %13

13:                                               ; preds = %11, %9
  %14 = load i32, ptr %3, align 4
  ret i32 %14
}

; Function Attrs: nounwind uwtable
define dso_local i32 @cr_realloc(ptr noundef %0, i32 noundef %1) #0 {
  %3 = alloca i32, align 4
  %4 = alloca ptr, align 8
  %5 = alloca i32, align 4
  %6 = alloca i32, align 4
  %7 = alloca ptr, align 8
  store ptr %0, ptr %4, align 8
  store i32 %1, ptr %5, align 4
  %8 = load i32, ptr %5, align 4
  %9 = load ptr, ptr %4, align 8
  %10 = getelementptr inbounds %struct.CharRange, ptr %9, i32 0, i32 1
  %11 = load i32, ptr %10, align 4
  %12 = icmp sgt i32 %8, %11
  br i1 %12, label %13, label %44

13:                                               ; preds = %2
  %14 = load i32, ptr %5, align 4
  %15 = load ptr, ptr %4, align 8
  %16 = getelementptr inbounds %struct.CharRange, ptr %15, i32 0, i32 1
  %17 = load i32, ptr %16, align 4
  %18 = mul i32 %17, 3
  %19 = sdiv i32 %18, 2
  %20 = call i32 @max_int(i32 noundef %14, i32 noundef %19)
  store i32 %20, ptr %6, align 4
  %21 = load ptr, ptr %4, align 8
  %22 = getelementptr inbounds %struct.CharRange, ptr %21, i32 0, i32 4
  %23 = load ptr, ptr %22, align 8
  %24 = load ptr, ptr %4, align 8
  %25 = getelementptr inbounds %struct.CharRange, ptr %24, i32 0, i32 3
  %26 = load ptr, ptr %25, align 8
  %27 = load ptr, ptr %4, align 8
  %28 = getelementptr inbounds %struct.CharRange, ptr %27, i32 0, i32 2
  %29 = load ptr, ptr %28, align 8
  %30 = load i32, ptr %6, align 4
  %31 = sext i32 %30 to i64
  %32 = mul i64 %31, 4
  %33 = call ptr %23(ptr noundef %26, ptr noundef %29, i64 noundef %32)
  store ptr %33, ptr %7, align 8
  %34 = load ptr, ptr %7, align 8
  %35 = icmp ne ptr %34, null
  br i1 %35, label %37, label %36

36:                                               ; preds = %13
  store i32 -1, ptr %3, align 4
  br label %45

37:                                               ; preds = %13
  %38 = load ptr, ptr %7, align 8
  %39 = load ptr, ptr %4, align 8
  %40 = getelementptr inbounds %struct.CharRange, ptr %39, i32 0, i32 2
  store ptr %38, ptr %40, align 8
  %41 = load i32, ptr %6, align 4
  %42 = load ptr, ptr %4, align 8
  %43 = getelementptr inbounds %struct.CharRange, ptr %42, i32 0, i32 1
  store i32 %41, ptr %43, align 4
  br label %44

44:                                               ; preds = %37, %2
  store i32 0, ptr %3, align 4
  br label %45

45:                                               ; preds = %44, %36
  %46 = load i32, ptr %3, align 4
  ret i32 %46
}

; Function Attrs: nounwind uwtable
define internal void @cr_compress(ptr noundef %0) #0 {
  %2 = alloca ptr, align 8
  %3 = alloca i32, align 4
  %4 = alloca i32, align 4
  %5 = alloca i32, align 4
  %6 = alloca i32, align 4
  %7 = alloca ptr, align 8
  store ptr %0, ptr %2, align 8
  %8 = load ptr, ptr %2, align 8
  %9 = getelementptr inbounds %struct.CharRange, ptr %8, i32 0, i32 2
  %10 = load ptr, ptr %9, align 8
  store ptr %10, ptr %7, align 8
  %11 = load ptr, ptr %2, align 8
  %12 = getelementptr inbounds %struct.CharRange, ptr %11, i32 0, i32 0
  %13 = load i32, ptr %12, align 8
  store i32 %13, ptr %6, align 4
  store i32 0, ptr %3, align 4
  store i32 0, ptr %4, align 4
  store i32 0, ptr %5, align 4
  br label %14

14:                                               ; preds = %86, %1
  %15 = load i32, ptr %3, align 4
  %16 = add i32 %15, 1
  %17 = load i32, ptr %6, align 4
  %18 = icmp slt i32 %16, %17
  br i1 %18, label %19, label %87

19:                                               ; preds = %14
  %20 = load ptr, ptr %7, align 8
  %21 = load i32, ptr %3, align 4
  %22 = sext i32 %21 to i64
  %23 = getelementptr i32, ptr %20, i64 %22
  %24 = load i32, ptr %23, align 4
  %25 = load ptr, ptr %7, align 8
  %26 = load i32, ptr %3, align 4
  %27 = add i32 %26, 1
  %28 = sext i32 %27 to i64
  %29 = getelementptr i32, ptr %25, i64 %28
  %30 = load i32, ptr %29, align 4
  %31 = icmp eq i32 %24, %30
  br i1 %31, label %32, label %35

32:                                               ; preds = %19
  %33 = load i32, ptr %3, align 4
  %34 = add i32 %33, 2
  store i32 %34, ptr %3, align 4
  br label %86

35:                                               ; preds = %19
  %36 = load i32, ptr %3, align 4
  store i32 %36, ptr %4, align 4
  br label %37

37:                                               ; preds = %58, %35
  %38 = load i32, ptr %4, align 4
  %39 = add i32 %38, 3
  %40 = load i32, ptr %6, align 4
  %41 = icmp slt i32 %39, %40
  br i1 %41, label %42, label %56

42:                                               ; preds = %37
  %43 = load ptr, ptr %7, align 8
  %44 = load i32, ptr %4, align 4
  %45 = add i32 %44, 1
  %46 = sext i32 %45 to i64
  %47 = getelementptr i32, ptr %43, i64 %46
  %48 = load i32, ptr %47, align 4
  %49 = load ptr, ptr %7, align 8
  %50 = load i32, ptr %4, align 4
  %51 = add i32 %50, 2
  %52 = sext i32 %51 to i64
  %53 = getelementptr i32, ptr %49, i64 %52
  %54 = load i32, ptr %53, align 4
  %55 = icmp eq i32 %48, %54
  br label %56

56:                                               ; preds = %42, %37
  %57 = phi i1 [ false, %37 ], [ %55, %42 ]
  br i1 %57, label %58, label %61

58:                                               ; preds = %56
  %59 = load i32, ptr %4, align 4
  %60 = add i32 %59, 2
  store i32 %60, ptr %4, align 4
  br label %37, !llvm.loop !11

61:                                               ; preds = %56
  %62 = load ptr, ptr %7, align 8
  %63 = load i32, ptr %3, align 4
  %64 = sext i32 %63 to i64
  %65 = getelementptr i32, ptr %62, i64 %64
  %66 = load i32, ptr %65, align 4
  %67 = load ptr, ptr %7, align 8
  %68 = load i32, ptr %5, align 4
  %69 = sext i32 %68 to i64
  %70 = getelementptr i32, ptr %67, i64 %69
  store i32 %66, ptr %70, align 4
  %71 = load ptr, ptr %7, align 8
  %72 = load i32, ptr %4, align 4
  %73 = add i32 %72, 1
  %74 = sext i32 %73 to i64
  %75 = getelementptr i32, ptr %71, i64 %74
  %76 = load i32, ptr %75, align 4
  %77 = load ptr, ptr %7, align 8
  %78 = load i32, ptr %5, align 4
  %79 = add i32 %78, 1
  %80 = sext i32 %79 to i64
  %81 = getelementptr i32, ptr %77, i64 %80
  store i32 %76, ptr %81, align 4
  %82 = load i32, ptr %5, align 4
  %83 = add i32 %82, 2
  store i32 %83, ptr %5, align 4
  %84 = load i32, ptr %4, align 4
  %85 = add i32 %84, 2
  store i32 %85, ptr %3, align 4
  br label %86

86:                                               ; preds = %61, %32
  br label %14, !llvm.loop !12

87:                                               ; preds = %14
  %88 = load i32, ptr %5, align 4
  %89 = load ptr, ptr %2, align 8
  %90 = getelementptr inbounds %struct.CharRange, ptr %89, i32 0, i32 0
  store i32 %88, ptr %90, align 8
  ret void
}

; Function Attrs: nounwind uwtable
define internal i32 @cr_add_point(ptr noundef %0, i32 noundef %1) #0 {
  %3 = alloca i32, align 4
  %4 = alloca ptr, align 8
  %5 = alloca i32, align 4
  store ptr %0, ptr %4, align 8
  store i32 %1, ptr %5, align 4
  %6 = load ptr, ptr %4, align 8
  %7 = getelementptr inbounds %struct.CharRange, ptr %6, i32 0, i32 0
  %8 = load i32, ptr %7, align 8
  %9 = load ptr, ptr %4, align 8
  %10 = getelementptr inbounds %struct.CharRange, ptr %9, i32 0, i32 1
  %11 = load i32, ptr %10, align 4
  %12 = icmp sge i32 %8, %11
  br i1 %12, label %13, label %23

13:                                               ; preds = %2
  %14 = load ptr, ptr %4, align 8
  %15 = load ptr, ptr %4, align 8
  %16 = getelementptr inbounds %struct.CharRange, ptr %15, i32 0, i32 0
  %17 = load i32, ptr %16, align 8
  %18 = add i32 %17, 1
  %19 = call i32 @cr_realloc(ptr noundef %14, i32 noundef %18)
  %20 = icmp ne i32 %19, 0
  br i1 %20, label %21, label %22

21:                                               ; preds = %13
  store i32 -1, ptr %3, align 4
  br label %34

22:                                               ; preds = %13
  br label %23

23:                                               ; preds = %22, %2
  %24 = load i32, ptr %5, align 4
  %25 = load ptr, ptr %4, align 8
  %26 = getelementptr inbounds %struct.CharRange, ptr %25, i32 0, i32 2
  %27 = load ptr, ptr %26, align 8
  %28 = load ptr, ptr %4, align 8
  %29 = getelementptr inbounds %struct.CharRange, ptr %28, i32 0, i32 0
  %30 = load i32, ptr %29, align 8
  %31 = add i32 %30, 1
  store i32 %31, ptr %29, align 8
  %32 = sext i32 %30 to i64
  %33 = getelementptr i32, ptr %27, i64 %32
  store i32 %24, ptr %33, align 4
  store i32 0, ptr %3, align 4
  br label %34

34:                                               ; preds = %23, %21
  %35 = load i32, ptr %3, align 4
  ret i32 %35
}

; Function Attrs: nounwind uwtable
define dso_local i32 @cr_op(ptr noundef %0, ptr noundef %1, i32 noundef %2, ptr noundef %3, i32 noundef %4, i32 noundef %5) #0 {
  %7 = alloca i32, align 4
  %8 = alloca ptr, align 8
  %9 = alloca ptr, align 8
  %10 = alloca i32, align 4
  %11 = alloca ptr, align 8
  %12 = alloca i32, align 4
  %13 = alloca i32, align 4
  %14 = alloca i32, align 4
  %15 = alloca i32, align 4
  %16 = alloca i32, align 4
  %17 = alloca i32, align 4
  store ptr %0, ptr %8, align 8
  store ptr %1, ptr %9, align 8
  store i32 %2, ptr %10, align 4
  store ptr %3, ptr %11, align 8
  store i32 %4, ptr %12, align 4
  store i32 %5, ptr %13, align 4
  store i32 0, ptr %14, align 4
  store i32 0, ptr %15, align 4
  br label %18

18:                                               ; preds = %126, %6
  %19 = load i32, ptr %14, align 4
  %20 = load i32, ptr %10, align 4
  %21 = icmp slt i32 %19, %20
  br i1 %21, label %22, label %64

22:                                               ; preds = %18
  %23 = load i32, ptr %15, align 4
  %24 = load i32, ptr %12, align 4
  %25 = icmp slt i32 %23, %24
  br i1 %25, label %26, label %64

26:                                               ; preds = %22
  %27 = load ptr, ptr %9, align 8
  %28 = load i32, ptr %14, align 4
  %29 = sext i32 %28 to i64
  %30 = getelementptr i32, ptr %27, i64 %29
  %31 = load i32, ptr %30, align 4
  %32 = load ptr, ptr %11, align 8
  %33 = load i32, ptr %15, align 4
  %34 = sext i32 %33 to i64
  %35 = getelementptr i32, ptr %32, i64 %34
  %36 = load i32, ptr %35, align 4
  %37 = icmp ult i32 %31, %36
  br i1 %37, label %38, label %39

38:                                               ; preds = %26
  br label %69

39:                                               ; preds = %26
  %40 = load ptr, ptr %9, align 8
  %41 = load i32, ptr %14, align 4
  %42 = sext i32 %41 to i64
  %43 = getelementptr i32, ptr %40, i64 %42
  %44 = load i32, ptr %43, align 4
  %45 = load ptr, ptr %11, align 8
  %46 = load i32, ptr %15, align 4
  %47 = sext i32 %46 to i64
  %48 = getelementptr i32, ptr %45, i64 %47
  %49 = load i32, ptr %48, align 4
  %50 = icmp eq i32 %44, %49
  br i1 %50, label %51, label %61

51:                                               ; preds = %39
  %52 = load ptr, ptr %9, align 8
  %53 = load i32, ptr %14, align 4
  %54 = sext i32 %53 to i64
  %55 = getelementptr i32, ptr %52, i64 %54
  %56 = load i32, ptr %55, align 4
  store i32 %56, ptr %17, align 4
  %57 = load i32, ptr %14, align 4
  %58 = add i32 %57, 1
  store i32 %58, ptr %14, align 4
  %59 = load i32, ptr %15, align 4
  %60 = add i32 %59, 1
  store i32 %60, ptr %15, align 4
  br label %62

61:                                               ; preds = %39
  br label %81

62:                                               ; preds = %51
  br label %63

63:                                               ; preds = %62
  br label %91

64:                                               ; preds = %22, %18
  %65 = load i32, ptr %14, align 4
  %66 = load i32, ptr %10, align 4
  %67 = icmp slt i32 %65, %66
  br i1 %67, label %68, label %76

68:                                               ; preds = %64
  br label %69

69:                                               ; preds = %68, %38
  %70 = load ptr, ptr %9, align 8
  %71 = load i32, ptr %14, align 4
  %72 = add i32 %71, 1
  store i32 %72, ptr %14, align 4
  %73 = sext i32 %71 to i64
  %74 = getelementptr i32, ptr %70, i64 %73
  %75 = load i32, ptr %74, align 4
  store i32 %75, ptr %17, align 4
  br label %90

76:                                               ; preds = %64
  %77 = load i32, ptr %15, align 4
  %78 = load i32, ptr %12, align 4
  %79 = icmp slt i32 %77, %78
  br i1 %79, label %80, label %88

80:                                               ; preds = %76
  br label %81

81:                                               ; preds = %80, %61
  %82 = load ptr, ptr %11, align 8
  %83 = load i32, ptr %15, align 4
  %84 = add i32 %83, 1
  store i32 %84, ptr %15, align 4
  %85 = sext i32 %83 to i64
  %86 = getelementptr i32, ptr %82, i64 %85
  %87 = load i32, ptr %86, align 4
  store i32 %87, ptr %17, align 4
  br label %89

88:                                               ; preds = %76
  br label %127

89:                                               ; preds = %81
  br label %90

90:                                               ; preds = %89, %69
  br label %91

91:                                               ; preds = %90, %63
  %92 = load i32, ptr %13, align 4
  switch i32 %92, label %111 [
    i32 0, label %93
    i32 1, label %99
    i32 2, label %105
  ]

93:                                               ; preds = %91
  %94 = load i32, ptr %14, align 4
  %95 = and i32 %94, 1
  %96 = load i32, ptr %15, align 4
  %97 = and i32 %96, 1
  %98 = or i32 %95, %97
  store i32 %98, ptr %16, align 4
  br label %112

99:                                               ; preds = %91
  %100 = load i32, ptr %14, align 4
  %101 = and i32 %100, 1
  %102 = load i32, ptr %15, align 4
  %103 = and i32 %102, 1
  %104 = and i32 %101, %103
  store i32 %104, ptr %16, align 4
  br label %112

105:                                              ; preds = %91
  %106 = load i32, ptr %14, align 4
  %107 = and i32 %106, 1
  %108 = load i32, ptr %15, align 4
  %109 = and i32 %108, 1
  %110 = xor i32 %107, %109
  store i32 %110, ptr %16, align 4
  br label %112

111:                                              ; preds = %91
  call void @abort() #8
  unreachable

112:                                              ; preds = %105, %99, %93
  %113 = load i32, ptr %16, align 4
  %114 = load ptr, ptr %8, align 8
  %115 = getelementptr inbounds %struct.CharRange, ptr %114, i32 0, i32 0
  %116 = load i32, ptr %115, align 8
  %117 = and i32 %116, 1
  %118 = icmp ne i32 %113, %117
  br i1 %118, label %119, label %126

119:                                              ; preds = %112
  %120 = load ptr, ptr %8, align 8
  %121 = load i32, ptr %17, align 4
  %122 = call i32 @cr_add_point(ptr noundef %120, i32 noundef %121)
  %123 = icmp ne i32 %122, 0
  br i1 %123, label %124, label %125

124:                                              ; preds = %119
  store i32 -1, ptr %7, align 4
  br label %129

125:                                              ; preds = %119
  br label %126

126:                                              ; preds = %125, %112
  br label %18

127:                                              ; preds = %88
  %128 = load ptr, ptr %8, align 8
  call void @cr_compress(ptr noundef %128)
  store i32 0, ptr %7, align 4
  br label %129

129:                                              ; preds = %127, %124
  %130 = load i32, ptr %7, align 4
  ret i32 %130
}