; Function Attrs: nounwind uwtable
define dso_local noundef i32 @cr_op(ptr nocapture noundef %0, ptr nocapture noundef readonly %1, i32 noundef %2, ptr nocapture noundef readonly %3, i32 noundef %4, i32 noundef %5) local_unnamed_addr #5 {
  %7 = getelementptr inbounds i8, ptr %0, i64 4
  %8 = getelementptr inbounds i8, ptr %0, i64 24
  %9 = getelementptr inbounds i8, ptr %0, i64 16
  %10 = getelementptr inbounds i8, ptr %0, i64 8
  br label %11

11:                                               ; preds = %.backedge, %6
  %.038 = phi i32 [ 0, %6 ], [ %.139, %.backedge ]
  %.037 = phi i32 [ 0, %6 ], [ %.1, %.backedge ]
  %12 = icmp slt i32 %.038, %2
  %13 = icmp slt i32 %.037, %4
  %or.cond = select i1 %12, i1 %13, i1 false
  br i1 %or.cond, label %14, label %27

14:                                               ; preds = %11
  %15 = sext i32 %.038 to i64
  %16 = getelementptr i32, ptr %1, i64 %15
  %17 = load i32, ptr %16, align 4
  %18 = sext i32 %.037 to i64
  %19 = getelementptr i32, ptr %3, i64 %18
  %20 = load i32, ptr %19, align 4
  %21 = icmp ult i32 %17, %20
  br i1 %21, label %28, label %22

22:                                               ; preds = %14
  %23 = icmp eq i32 %17, %20
  br i1 %23, label %24, label %32

24:                                               ; preds = %22
  %25 = add nsw i32 %.038, 1
  %26 = add nsw i32 %.037, 1
  br label %35

27:                                               ; preds = %11
  br i1 %12, label %._crit_edge56, label %31

._crit_edge56:                                    ; preds = %27
  %.phi.trans.insert57 = sext i32 %.038 to i64
  %.phi.trans.insert58 = getelementptr i32, ptr %1, i64 %.phi.trans.insert57
  %.pre59 = load i32, ptr %.phi.trans.insert58, align 4
  br label %28

28:                                               ; preds = %._crit_edge56, %14
  %29 = phi i32 [ %.pre59, %._crit_edge56 ], [ %17, %14 ]
  %30 = add nsw i32 %.038, 1
  br label %35

31:                                               ; preds = %27
  br i1 %13, label %._crit_edge, label %68

._crit_edge:                                      ; preds = %31
  %.phi.trans.insert = sext i32 %.037 to i64
  %.phi.trans.insert55 = getelementptr i32, ptr %3, i64 %.phi.trans.insert
  %.pre = load i32, ptr %.phi.trans.insert55, align 4
  br label %32

32:                                               ; preds = %._crit_edge, %22
  %33 = phi i32 [ %.pre, %._crit_edge ], [ %20, %22 ]
  %34 = add nsw i32 %.037, 1
  br label %35

35:                                               ; preds = %28, %32, %24
  %.139 = phi i32 [ %30, %28 ], [ %25, %24 ], [ %.038, %32 ]
  %.1 = phi i32 [ %.037, %28 ], [ %26, %24 ], [ %34, %32 ]
  %.0 = phi i32 [ %29, %28 ], [ %17, %24 ], [ %33, %32 ]
  switch i32 %5, label %45 [
    i32 0, label %36
    i32 1, label %39
    i32 2, label %42
  ]

36:                                               ; preds = %35
  %37 = or i32 %.1, %.139
  %38 = and i32 %37, 1
  br label %46

39:                                               ; preds = %35
  %40 = and i32 %.139, 1
  %41 = and i32 %40, %.1
  br label %46

42:                                               ; preds = %35
  %43 = xor i32 %.1, %.139
  %44 = and i32 %43, 1
  br label %46

45:                                               ; preds = %35
  tail call void @abort() #21
  unreachable

46:                                               ; preds = %42, %39, %36
  %.036 = phi i32 [ %44, %42 ], [ %41, %39 ], [ %38, %36 ]
  %47 = load i32, ptr %0, align 8
  %48 = and i32 %47, 1
  %.not = icmp eq i32 %.036, %48
  br i1 %.not, label %.backedge, label %49

49:                                               ; preds = %46
  %50 = load i32, ptr %7, align 4
  %.not.i = icmp slt i32 %47, %50
  br i1 %.not.i, label %.cr_add_point.exit.thread_crit_edge, label %51

.cr_add_point.exit.thread_crit_edge:              ; preds = %49
  %.pre60 = load ptr, ptr %10, align 8
  br label %cr_add_point.exit.thread

51:                                               ; preds = %49
  %52 = add i32 %47, 1
  %53 = icmp slt i32 %50, %52
  %.pre61 = load ptr, ptr %10, align 8
  br i1 %53, label %54, label %cr_add_point.exit.thread

54:                                               ; preds = %51
  %55 = mul i32 %50, 3
  %56 = sdiv i32 %55, 2
  %..i.i.i = tail call noundef i32 @llvm.smax.i32(i32 %52, i32 %56)
  %57 = load ptr, ptr %8, align 8
  %58 = load ptr, ptr %9, align 8
  %59 = sext i32 %..i.i.i to i64
  %60 = shl nsw i64 %59, 2
  %61 = tail call ptr %57(ptr noundef %58, ptr noundef %.pre61, i64 noundef %60) #20
  %.not.i.i = icmp eq ptr %61, null
  br i1 %.not.i.i, label %cr_add_point.exit, label %62

62:                                               ; preds = %54
  store ptr %61, ptr %10, align 8
  store i32 %..i.i.i, ptr %7, align 4
  %.pre.i = load i32, ptr %0, align 8
  br label %cr_add_point.exit.thread

cr_add_point.exit.thread:                         ; preds = %.cr_add_point.exit.thread_crit_edge, %51, %62
  %63 = phi ptr [ %.pre61, %51 ], [ %61, %62 ], [ %.pre60, %.cr_add_point.exit.thread_crit_edge ]
  %64 = phi i32 [ %47, %51 ], [ %.pre.i, %62 ], [ %47, %.cr_add_point.exit.thread_crit_edge ]
  %65 = add i32 %64, 1
  store i32 %65, ptr %0, align 8
  %66 = sext i32 %64 to i64
  %67 = getelementptr i32, ptr %63, i64 %66
  store i32 %.0, ptr %67, align 4
  br label %.backedge

.backedge:                                        ; preds = %cr_add_point.exit.thread, %46
  br label %11

68:                                               ; preds = %31
  %69 = load ptr, ptr %10, align 8
  %70 = load i32, ptr %0, align 8
  %71 = icmp sgt i32 %70, 1
  br i1 %71, label %.lr.ph.i, label %cr_compress.exit

.lr.ph.i:                                         ; preds = %68, %100
  %72 = phi i32 [ %.pre-phi.i, %100 ], [ 1, %68 ]
  %.034.i = phi i32 [ %.1.i, %100 ], [ 0, %68 ]
  %.02933.i = phi i32 [ %.130.i, %100 ], [ 0, %68 ]
  %73 = sext i32 %.034.i to i64
  %74 = getelementptr i32, ptr %69, i64 %73
  %75 = load i32, ptr %74, align 4
  %76 = sext i32 %72 to i64
  %77 = getelementptr i32, ptr %69, i64 %76
  %78 = load i32, ptr %77, align 4
  %79 = icmp eq i32 %75, %78
  br i1 %79, label %.lr.ph._crit_edge.i, label %.preheader.i

.lr.ph._crit_edge.i:                              ; preds = %.lr.ph.i
  %.pre.i44 = add i32 %.034.i, 3
  br label %100

.preheader.i:                                     ; preds = %.lr.ph.i, %84
  %.028.i = phi i32 [ %87, %84 ], [ %.034.i, %.lr.ph.i ]
  %80 = add i32 %.028.i, 3
  %81 = icmp slt i32 %80, %70
  %82 = add i32 %.028.i, 1
  %83 = sext i32 %82 to i64
  br i1 %81, label %84, label %.critedge.i

84:                                               ; preds = %.preheader.i
  %85 = getelementptr i32, ptr %69, i64 %83
  %86 = load i32, ptr %85, align 4
  %87 = add i32 %.028.i, 2
  %88 = sext i32 %87 to i64
  %89 = getelementptr i32, ptr %69, i64 %88
  %90 = load i32, ptr %89, align 4
  %91 = icmp eq i32 %86, %90
  br i1 %91, label %.preheader.i, label %.critedge.i, !llvm.loop !14

.critedge.i:                                      ; preds = %84, %.preheader.i
  %92 = sext i32 %.02933.i to i64
  %93 = getelementptr i32, ptr %69, i64 %92
  store i32 %75, ptr %93, align 4
  %94 = getelementptr i32, ptr %69, i64 %83
  %95 = load i32, ptr %94, align 4
  %96 = add i32 %.02933.i, 1
  %97 = sext i32 %96 to i64
  %98 = getelementptr i32, ptr %69, i64 %97
  store i32 %95, ptr %98, align 4
  %99 = add i32 %.02933.i, 2
  br label %100

100:                                              ; preds = %.critedge.i, %.lr.ph._crit_edge.i
  %.pre-phi.i = phi i32 [ %.pre.i44, %.lr.ph._crit_edge.i ], [ %80, %.critedge.i ]
  %.130.i = phi i32 [ %.02933.i, %.lr.ph._crit_edge.i ], [ %99, %.critedge.i ]
  %.1.in.i = phi i32 [ %.034.i, %.lr.ph._crit_edge.i ], [ %.028.i, %.critedge.i ]
  %.1.i = add i32 %.1.in.i, 2
  %101 = icmp slt i32 %.pre-phi.i, %70
  br i1 %101, label %.lr.ph.i, label %cr_compress.exit, !llvm.loop !15

cr_compress.exit:                                 ; preds = %100, %68
  %.029.lcssa.i = phi i32 [ 0, %68 ], [ %.130.i, %100 ]
  store i32 %.029.lcssa.i, ptr %0, align 8
  br label %cr_add_point.exit

cr_add_point.exit:                                ; preds = %54, %cr_compress.exit
  %.040 = phi i32 [ 0, %cr_compress.exit ], [ -1, %54 ]
  ret i32 %.040
}